target datalayout = "e-m:e-p270:32:32-p271:32:32-p272:64:64-i64:64-i128:128-f80:128-n8:16:32:64-S128"
target triple = "x86_64-pc-linux-gnu"

%struct.H5F_t = type { ptr, ptr, ptr, ptr, i32, ptr, i8, i8, ptr, i32 }
%struct.H5F_shared_t = type { ptr, ptr, ptr, i8, i32, i32, %struct.H5F_mtab_t, ptr, i8, i8, i64, i32, i32, i64, i64, ptr, ptr, %struct.H5AC_cache_config_t, %struct.H5AC_cache_image_config_t, i8, i8, ptr, i64, i32, i8, i64, i64, double, i64, i64, i64, i32, i32, i32, i8, i32, ptr, ptr, ptr, ptr, i8, i8, i8, i64, i64, ptr, ptr, i32, i64, i8, i32, i8, i64, i8, [13 x i32], [13 x i64], [13 x ptr], i8, i64, i64, [7 x i32], [7 x i32], %struct.H5F_blk_aggr_t, %struct.H5F_blk_aggr_t, i64, i64, %struct.H5F_meta_accum_t, i32, i32, [30 x ptr], %struct.H5F_object_flush_t, i8, ptr }
%struct.H5F_mtab_t = type { i32, i32, ptr }
%struct.H5AC_cache_config_t = type { i32, i8, i8, i8, [1025 x i8], i8, i8, i64, double, i64, i64, i64, i32, double, double, i8, i64, i32, double, double, i32, double, double, i8, i64, i32, i8, double, i64, i32 }
%struct.H5AC_cache_image_config_t = type { i32, i8, i8, i32 }
%struct.H5F_blk_aggr_t = type { i64, i64, i64, i64, i64 }
%struct.H5F_meta_accum_t = type { ptr, i64, i64, i64, i64, i64, i8 }
%struct.H5F_object_flush_t = type { ptr, ptr }

@.str = private unnamed_addr constant [102 x i8] c"generated/home/dtcxzyw/WorkSpace/Projects/compilers/llvm-opt-benchmark/bench/hdf5/hdf5/src/H5MFaggr.c\00", align 1
@H5E_RESOURCE_g = external global i64, align 8
@H5E_CANTGET_g = external global i64, align 8
@__func__.H5MF_free_aggrs = private unnamed_addr constant [16 x i8] c"H5MF_free_aggrs\00", align 1
@.str.5 = private unnamed_addr constant [38 x i8] c"can't query metadata aggregator stats\00", align 1
@.str.6 = private unnamed_addr constant [40 x i8] c"can't query small data aggregator stats\00", align 1
@H5E_FILE_g = external global i64, align 8
@H5E_CANTFREE_g = external global i64, align 8
@.str.7 = private unnamed_addr constant [27 x i8] c"can't reset metadata block\00", align 1
@.str.8 = private unnamed_addr constant [31 x i8] c"can't reset 'small data' block\00", align 1
@__func__.H5MF__aggr_reset = private unnamed_addr constant [17 x i8] c"H5MF__aggr_reset\00", align 1
@.str.16 = private unnamed_addr constant [38 x i8] c"can't release aggregator's free space\00", align 1

; Function Attrs: nounwind uwtable
define internal i32 @H5MF__aggr_reset(ptr noundef %0, ptr noundef %1) #0 {
  %3 = alloca ptr, align 8
  %4 = alloca ptr, align 8
  %5 = alloca i32, align 4
  %6 = alloca i32, align 4
  %7 = alloca i8, align 1
  %8 = alloca i64, align 8
  %9 = alloca i64, align 8
  store ptr %0, ptr %3, align 8
  store ptr %1, ptr %4, align 8
  store i32 0, ptr %6, align 4
  store i8 0, ptr %7, align 1
  %10 = load ptr, ptr %4, align 8
  %11 = getelementptr inbounds %struct.H5F_blk_aggr_t, ptr %10, i32 0, i32 0
  %12 = load i64, ptr %11, align 8
  %13 = icmp eq i64 %12, 1
  %14 = select i1 %13, i32 0, i32 3
  store i32 %14, ptr %5, align 4
  %15 = load ptr, ptr %3, align 8
  %16 = getelementptr inbounds %struct.H5F_t, ptr %15, i32 0, i32 2
  %17 = load ptr, ptr %16, align 8
  %18 = getelementptr inbounds %struct.H5F_shared_t, ptr %17, i32 0, i32 13
  %19 = load i64, ptr %18, align 8
  %20 = load ptr, ptr %4, align 8
  %21 = getelementptr inbounds %struct.H5F_blk_aggr_t, ptr %20, i32 0, i32 0
  %22 = load i64, ptr %21, align 8
  %23 = and i64 %19, %22
  %24 = icmp ne i64 %23, 0
  br i1 %24, label %25, label %69

25:                                               ; preds = %2
  %26 = load ptr, ptr %4, align 8
  %27 = getelementptr inbounds %struct.H5F_blk_aggr_t, ptr %26, i32 0, i32 4
  %28 = load i64, ptr %27, align 8
  store i64 %28, ptr %8, align 8
  %29 = load ptr, ptr %4, align 8
  %30 = getelementptr inbounds %struct.H5F_blk_aggr_t, ptr %29, i32 0, i32 3
  %31 = load i64, ptr %30, align 8
  store i64 %31, ptr %9, align 8
  %32 = load ptr, ptr %4, align 8
  %33 = getelementptr inbounds %struct.H5F_blk_aggr_t, ptr %32, i32 0, i32 2
  store i64 0, ptr %33, align 8
  %34 = load ptr, ptr %4, align 8
  %35 = getelementptr inbounds %struct.H5F_blk_aggr_t, ptr %34, i32 0, i32 4
  store i64 0, ptr %35, align 8
  %36 = load ptr, ptr %4, align 8
  %37 = getelementptr inbounds %struct.H5F_blk_aggr_t, ptr %36, i32 0, i32 3
  store i64 0, ptr %37, align 8
  %38 = load i64, ptr %9, align 8
  %39 = icmp ugt i64 %38, 0
  br i1 %39, label %40, label %68

40:                                               ; preds = %25
  %41 = load ptr, ptr %3, align 8
  %42 = call i32 @H5F_get_intent(ptr noundef %41)
  %43 = and i32 %42, 1
  %44 = icmp ne i32 %43, 0
  br i1 %44, label %45, label %68

45:                                               ; preds = %40
  %46 = load ptr, ptr %3, align 8
  %47 = load i32, ptr %5, align 4
  %48 = load i64, ptr %8, align 8
  %49 = load i64, ptr %9, align 8
  %50 = call i32 @H5MF_xfree(ptr noundef %46, i32 noundef %47, i64 noundef %48, i64 noundef %49)
  %51 = icmp slt i32 %50, 0
  br i1 %51, label %52, label %67

52:                                               ; preds = %45
  br label %53

53:                                               ; preds = %52
  br label %54

54:                                               ; preds = %53
  br label %55

55:                                               ; preds = %54
  %56 = load i64, ptr @H5E_RESOURCE_g, align 8
  %57 = load i64, ptr @H5E_CANTFREE_g, align 8
  %58 = call i32 (ptr, ptr, i32, i64, i64, ptr, ...) @H5E_printf_stack(ptr noundef @.str, ptr noundef @__func__.H5MF__aggr_reset, i32 noundef 726, i64 noundef %56, i64 noundef %57, ptr noundef @.str.16)
  br label %59

59:                                               ; preds = %55
  store i8 1, ptr %7, align 1
  %60 = load i8, ptr %7, align 1
  %61 = trunc i8 %60 to i1
  %62 = zext i1 %61 to i8
  store i8 %62, ptr %7, align 1
  br label %63

63:                                               ; preds = %59
  br label %64

64:                                               ; preds = %63
  store i32 -1, ptr %6, align 4
  br label %70

65:                                               ; No predecessors!
  br label %66

66:                                               ; preds = %65
  br label %67

67:                                               ; preds = %66, %45
  br label %68

68:                                               ; preds = %67, %40, %25
  br label %69

69:                                               ; preds = %68, %2
  br label %70

70:                                               ; preds = %69, %64
  %71 = load i32, ptr %6, align 4
  ret i32 %71
}

; Function Attrs: nounwind uwtable
define i32 @H5MF__aggr_query(ptr noundef %0, ptr noundef %1, ptr noundef %2, ptr noundef %3) #0 {
  %5 = alloca ptr, align 8
  %6 = alloca ptr, align 8
  %7 = alloca ptr, align 8
  %8 = alloca ptr, align 8
  store ptr %0, ptr %5, align 8
  store ptr %1, ptr %6, align 8
  store ptr %2, ptr %7, align 8
  store ptr %3, ptr %8, align 8
  %9 = load ptr, ptr %5, align 8
  %10 = getelementptr inbounds %struct.H5F_t, ptr %9, i32 0, i32 2
  %11 = load ptr, ptr %10, align 8
  %12 = getelementptr inbounds %struct.H5F_shared_t, ptr %11, i32 0, i32 13
  %13 = load i64, ptr %12, align 8
  %14 = load ptr, ptr %6, align 8
  %15 = getelementptr inbounds %struct.H5F_blk_aggr_t, ptr %14, i32 0, i32 0
  %16 = load i64, ptr %15, align 8
  %17 = and i64 %13, %16
  %18 = icmp ne i64 %17, 0
  br i1 %18, label %19, label %36

19:                                               ; preds = %4
  %20 = load ptr, ptr %7, align 8
  %21 = icmp ne ptr %20, null
  br i1 %21, label %22, label %27

22:                                               ; preds = %19
  %23 = load ptr, ptr %6, align 8
  %24 = getelementptr inbounds %struct.H5F_blk_aggr_t, ptr %23, i32 0, i32 4
  %25 = load i64, ptr %24, align 8
  %26 = load ptr, ptr %7, align 8
  store i64 %25, ptr %26, align 8
  br label %27

27:                                               ; preds = %22, %19
  %28 = load ptr, ptr %8, align 8
  %29 = icmp ne ptr %28, null
  br i1 %29, label %30, label %35

30:                                               ; preds = %27
  %31 = load ptr, ptr %6, align 8
  %32 = getelementptr inbounds %struct.H5F_blk_aggr_t, ptr %31, i32 0, i32 3
  %33 = load i64, ptr %32, align 8
  %34 = load ptr, ptr %8, align 8
  store i64 %33, ptr %34, align 8
  br label %35

35:                                               ; preds = %30, %27
  br label %36

36:                                               ; preds = %35, %4
  ret i32 0
}

; Function Attrs: nounwind uwtable
define i32 @H5MF_free_aggrs(ptr noundef %0) #0 {
  %2 = alloca ptr, align 8
  %3 = alloca ptr, align 8
  %4 = alloca ptr, align 8
  %5 = alloca i64, align 8
  %6 = alloca i64, align 8
  %7 = alloca i64, align 8
  %8 = alloca i64, align 8
  %9 = alloca i32, align 4
  %10 = alloca i8, align 1
  store ptr %0, ptr %2, align 8
  store i64 -1, ptr %5, align 8
  store i64 0, ptr %6, align 8
  store i64 -1, ptr %7, align 8
  store i64 0, ptr %8, align 8
  store i32 0, ptr %9, align 4
  store i8 0, ptr %10, align 1
  %11 = load ptr, ptr %2, align 8
  %12 = load ptr, ptr %2, align 8
  %13 = getelementptr inbounds %struct.H5F_t, ptr %12, i32 0, i32 2
  %14 = load ptr, ptr %13, align 8
  %15 = getelementptr inbounds %struct.H5F_shared_t, ptr %14, i32 0, i32 62
  %16 = call i32 @H5MF__aggr_query(ptr noundef %11, ptr noundef %15, ptr noundef %5, ptr noundef %6)
  %17 = icmp slt i32 %16, 0
  br i1 %17, label %18, label %33

18:                                               ; preds = %1
  br label %19

19:                                               ; preds = %18
  br label %20

20:                                               ; preds = %19
  br label %21

21:                                               ; preds = %20
  %22 = load i64, ptr @H5E_RESOURCE_g, align 8
  %23 = load i64, ptr @H5E_CANTGET_g, align 8
  %24 = call i32 (ptr, ptr, i32, i64, i64, ptr, ...) @H5E_printf_stack(ptr noundef @.str, ptr noundef @__func__.H5MF_free_aggrs, i32 noundef 763, i64 noundef %22, i64 noundef %23, ptr noundef @.str.5)
  br label %25

25:                                               ; preds = %21
  store i8 1, ptr %10, align 1
  %26 = load i8, ptr %10, align 1
  %27 = trunc i8 %26 to i1
  %28 = zext i1 %27 to i8
  store i8 %28, ptr %10, align 1
  br label %29

29:                                               ; preds = %25
  br label %30

30:                                               ; preds = %29
  store i32 -1, ptr %9, align 4
  br label %141

31:                                               ; No predecessors!
  br label %32

32:                                               ; preds = %31
  br label %33

33:                                               ; preds = %32, %1
  %34 = load ptr, ptr %2, align 8
  %35 = load ptr, ptr %2, align 8
  %36 = getelementptr inbounds %struct.H5F_t, ptr %35, i32 0, i32 2
  %37 = load ptr, ptr %36, align 8
  %38 = getelementptr inbounds %struct.H5F_shared_t, ptr %37, i32 0, i32 63
  %39 = call i32 @H5MF__aggr_query(ptr noundef %34, ptr noundef %38, ptr noundef %7, ptr noundef %8)
  %40 = icmp slt i32 %39, 0
  br i1 %40, label %41, label %56

41:                                               ; preds = %33
  br label %42

42:                                               ; preds = %41
  br label %43

43:                                               ; preds = %42
  br label %44

44:                                               ; preds = %43
  %45 = load i64, ptr @H5E_RESOURCE_g, align 8
  %46 = load i64, ptr @H5E_CANTGET_g, align 8
  %47 = call i32 (ptr, ptr, i32, i64, i64, ptr, ...) @H5E_printf_stack(ptr noundef @.str, ptr noundef @__func__.H5MF_free_aggrs, i32 noundef 767, i64 noundef %45, i64 noundef %46, ptr noundef @.str.6)
  br label %48

48:                                               ; preds = %44
  store i8 1, ptr %10, align 1
  %49 = load i8, ptr %10, align 1
  %50 = trunc i8 %49 to i1
  %51 = zext i1 %50 to i8
  store i8 %51, ptr %10, align 1
  br label %52

52:                                               ; preds = %48
  br label %53

53:                                               ; preds = %52
  store i32 -1, ptr %9, align 4
  br label %141

54:                                               ; No predecessors!
  br label %55

55:                                               ; preds = %54
  br label %56

56:                                               ; preds = %55, %33
  %57 = load i64, ptr %5, align 8
  %58 = icmp ne i64 %57, -1
  br i1 %58, label %59, label %91

59:                                               ; preds = %56
  %60 = load i64, ptr %7, align 8
  %61 = icmp ne i64 %60, -1
  br i1 %61, label %62, label %91

62:                                               ; preds = %59
  %63 = load i64, ptr %5, align 8
  %64 = icmp ne i64 %63, -1
  br i1 %64, label %65, label %81

65:                                               ; preds = %62
  %66 = load i64, ptr %7, align 8
  %67 = icmp ne i64 %66, -1
  br i1 %67, label %68, label %81

68:                                               ; preds = %65
  %69 = load i64, ptr %5, align 8
  %70 = load i64, ptr %7, align 8
  %71 = icmp ult i64 %69, %70
  br i1 %71, label %72, label %81

72:                                               ; preds = %68
  %73 = load ptr, ptr %2, align 8
  %74 = getelementptr inbounds %struct.H5F_t, ptr %73, i32 0, i32 2
  %75 = load ptr, ptr %74, align 8
  %76 = getelementptr inbounds %struct.H5F_shared_t, ptr %75, i32 0, i32 63
  store ptr %76, ptr %3, align 8
  %77 = load ptr, ptr %2, align 8
  %78 = getelementptr inbounds %struct.H5F_t, ptr %77, i32 0, i32 2
  %79 = load ptr, ptr %78, align 8
  %80 = getelementptr inbounds %struct.H5F_shared_t, ptr %79, i32 0, i32 62
  store ptr %80, ptr %4, align 8
  br label %90

81:                                               ; preds = %68, %65, %62
  %82 = load ptr, ptr %2, align 8
  %83 = getelementptr inbounds %struct.H5F_t, ptr %82, i32 0, i32 2
  %84 = load ptr, ptr %83, align 8
  %85 = getelementptr inbounds %struct.H5F_shared_t, ptr %84, i32 0, i32 62
  store ptr %85, ptr %3, align 8
  %86 = load ptr, ptr %2, align 8
  %87 = getelementptr inbounds %struct.H5F_t, ptr %86, i32 0, i32 2
  %88 = load ptr, ptr %87, align 8
  %89 = getelementptr inbounds %struct.H5F_shared_t, ptr %88, i32 0, i32 63
  store ptr %89, ptr %4, align 8
  br label %90

90:                                               ; preds = %81, %72
  br label %100

91:                                               ; preds = %59, %56
  %92 = load ptr, ptr %2, align 8
  %93 = getelementptr inbounds %struct.H5F_t, ptr %92, i32 0, i32 2
  %94 = load ptr, ptr %93, align 8
  %95 = getelementptr inbounds %struct.H5F_shared_t, ptr %94, i32 0, i32 62
  store ptr %95, ptr %3, align 8
  %96 = load ptr, ptr %2, align 8
  %97 = getelementptr inbounds %struct.H5F_t, ptr %96, i32 0, i32 2
  %98 = load ptr, ptr %97, align 8
  %99 = getelementptr inbounds %struct.H5F_shared_t, ptr %98, i32 0, i32 63
  store ptr %99, ptr %4, align 8
  br label %100

100:                                              ; preds = %91, %90
  %101 = load ptr, ptr %2, align 8
  %102 = load ptr, ptr %3, align 8
  %103 = call i32 @H5MF__aggr_reset(ptr noundef %101, ptr noundef %102)
  %104 = icmp slt i32 %103, 0
  br i1 %104, label %105, label %120

105:                                              ; preds = %100
  br label %106

106:                                              ; preds = %105
  br label %107

107:                                              ; preds = %106
  br label %108

108:                                              ; preds = %107
  %109 = load i64, ptr @H5E_FILE_g, align 8
  %110 = load i64, ptr @H5E_CANTFREE_g, align 8
  %111 = call i32 (ptr, ptr, i32, i64, i64, ptr, ...) @H5E_printf_stack(ptr noundef @.str, ptr noundef @__func__.H5MF_free_aggrs, i32 noundef 790, i64 noundef %109, i64 noundef %110, ptr noundef @.str.7)
  br label %112

112:                                              ; preds = %108
  store i8 1, ptr %10, align 1
  %113 = load i8, ptr %10, align 1
  %114 = trunc i8 %113 to i1
  %115 = zext i1 %114 to i8
  store i8 %115, ptr %10, align 1
  br label %116

116:                                              ; preds = %112
  br label %117

117:                                              ; preds = %116
  store i32 -1, ptr %9, align 4
  br label %141

118:                                              ; No predecessors!
  br label %119

119:                                              ; preds = %118
  br label %120

120:                                              ; preds = %119, %100
  %121 = load ptr, ptr %2, align 8
  %122 = load ptr, ptr %4, align 8
  %123 = call i32 @H5MF__aggr_reset(ptr noundef %121, ptr noundef %122)
  %124 = icmp slt i32 %123, 0
  br i1 %124, label %125, label %140

125:                                              ; preds = %120
  br label %126

126:                                              ; preds = %125
  br label %127

127:                                              ; preds = %126
  br label %128

128:                                              ; preds = %127
  %129 = load i64, ptr @H5E_FILE_g, align 8
  %130 = load i64, ptr @H5E_CANTFREE_g, align 8
  %131 = call i32 (ptr, ptr, i32, i64, i64, ptr, ...) @H5E_printf_stack(ptr noundef @.str, ptr noundef @__func__.H5MF_free_aggrs, i32 noundef 792, i64 noundef %129, i64 noundef %130, ptr noundef @.str.8)
  br label %132

132:                                              ; preds = %128
  store i8 1, ptr %10, align 1
  %133 = load i8, ptr %10, align 1
  %134 = trunc i8 %133 to i1
  %135 = zext i1 %134 to i8
  store i8 %135, ptr %10, align 1
  br label %136

136:                                              ; preds = %132
  br label %137

137:                                              ; preds = %136
  store i32 -1, ptr %9, align 4
  br label %141

138:                                              ; No predecessors!
  br label %139

139:                                              ; preds = %138
  br label %140

140:                                              ; preds = %139, %120
  br label %141

141:                                              ; preds = %140, %137, %117, %53, %30
  %142 = load i32, ptr %9, align 4
  ret i32 %142
}