; Function Attrs: nounwind uwtable
define range(i32 -1, 1) i32 @H5MF_free_aggrs(ptr noundef %0) local_unnamed_addr #0 {
  %2 = getelementptr inbounds i8, ptr %0, i64 16
  %3 = load ptr, ptr %2, align 8
  %4 = getelementptr inbounds i8, ptr %3, i64 1904
  %5 = getelementptr inbounds i8, ptr %3, i64 88
  %6 = load i64, ptr %5, align 8
  %7 = load i64, ptr %4, align 8
  %8 = and i64 %7, %6
  %.not.i = icmp eq i64 %8, 0
  br i1 %.not.i, label %H5MF__aggr_query.exit, label %9

9:                                                ; preds = %1
  %10 = getelementptr inbounds i8, ptr %3, i64 1936
  %11 = load i64, ptr %10, align 8
  br label %H5MF__aggr_query.exit

H5MF__aggr_query.exit:                            ; preds = %1, %9
  %.035 = phi i64 [ -1, %1 ], [ %11, %9 ]
  %12 = getelementptr inbounds i8, ptr %3, i64 1944
  %13 = load i64, ptr %12, align 8
  %14 = and i64 %13, %6
  %.not.i25 = icmp eq i64 %14, 0
  br i1 %.not.i25, label %H5MF__aggr_query.exit26.thread, label %H5MF__aggr_query.exit26

H5MF__aggr_query.exit26:                          ; preds = %H5MF__aggr_query.exit
  %15 = getelementptr inbounds i8, ptr %3, i64 1976
  %16 = load i64, ptr %15, align 8
  %17 = icmp ne i64 %.035, -1
  %18 = icmp ne i64 %16, -1
  %or.cond = select i1 %17, i1 %18, i1 false
  br i1 %or.cond, label %19, label %H5MF__aggr_query.exit26.thread

19:                                               ; preds = %H5MF__aggr_query.exit26
  %20 = icmp ult i64 %.035, %16
  %spec.select = select i1 %20, ptr %12, ptr %4
  %spec.select40 = select i1 %20, ptr %4, ptr %12
  %.pre = load i64, ptr %spec.select, align 8
  %.pre41 = and i64 %.pre, %6
  br label %H5MF__aggr_query.exit26.thread

H5MF__aggr_query.exit26.thread:                   ; preds = %19, %H5MF__aggr_query.exit, %H5MF__aggr_query.exit26
  %.pre-phi = phi i64 [ %.pre41, %19 ], [ %8, %H5MF__aggr_query.exit ], [ %8, %H5MF__aggr_query.exit26 ]
  %21 = phi i64 [ %.pre, %19 ], [ %7, %H5MF__aggr_query.exit ], [ %7, %H5MF__aggr_query.exit26 ]
  %.022 = phi ptr [ %spec.select, %19 ], [ %4, %H5MF__aggr_query.exit ], [ %4, %H5MF__aggr_query.exit26 ]
  %.021 = phi ptr [ %spec.select40, %19 ], [ %12, %H5MF__aggr_query.exit ], [ %12, %H5MF__aggr_query.exit26 ]
  %22 = icmp eq i64 %21, 1
  %23 = select i1 %22, i32 0, i32 3
  %.not.i27 = icmp eq i64 %.pre-phi, 0
  br i1 %.not.i27, label %43, label %24

24:                                               ; preds = %H5MF__aggr_query.exit26.thread
  %25 = getelementptr inbounds i8, ptr %.022, i64 32
  %26 = load i64, ptr %25, align 8
  %27 = getelementptr inbounds i8, ptr %.022, i64 24
  %28 = load i64, ptr %27, align 8
  %29 = getelementptr inbounds i8, ptr %.022, i64 16
  %.not16.i = icmp eq i64 %28, 0
  tail call void @llvm.memset.p0.i64(ptr noundef nonnull align 8 dereferenceable(24) %29, i8 0, i64 24, i1 false)
  br i1 %.not16.i, label %43, label %30

30:                                               ; preds = %24
  %31 = tail call i32 @H5F_get_intent(ptr noundef nonnull %0) #6
  %32 = and i32 %31, 1
  %.not17.i = icmp eq i32 %32, 0
  br i1 %.not17.i, label %43, label %33

33:                                               ; preds = %30
  %34 = tail call i32 @H5MF_xfree(ptr noundef nonnull %0, i32 noundef %23, i64 noundef %26, i64 noundef %28) #6
  %35 = icmp slt i32 %34, 0
  br i1 %35, label %36, label %43

36:                                               ; preds = %33
  %37 = load i64, ptr @H5E_RESOURCE_g, align 8
  %38 = load i64, ptr @H5E_CANTFREE_g, align 8
  %39 = tail call i32 (ptr, ptr, i32, i64, i64, ptr, ...) @H5E_printf_stack(ptr noundef nonnull @.str, ptr noundef nonnull @__func__.H5MF__aggr_reset, i32 noundef 726, i64 noundef %37, i64 noundef %38, ptr noundef nonnull @.str.16) #6
  %40 = load i64, ptr @H5E_FILE_g, align 8
  %41 = load i64, ptr @H5E_CANTFREE_g, align 8
  %42 = tail call i32 (ptr, ptr, i32, i64, i64, ptr, ...) @H5E_printf_stack(ptr noundef nonnull @.str, ptr noundef nonnull @__func__.H5MF_free_aggrs, i32 noundef 790, i64 noundef %40, i64 noundef %41, ptr noundef nonnull @.str.7) #6
  br label %H5MF__aggr_reset.exit32.thread

43:                                               ; preds = %33, %30, %24, %H5MF__aggr_query.exit26.thread
  %44 = load i64, ptr %.021, align 8
  %45 = icmp eq i64 %44, 1
  %46 = select i1 %45, i32 0, i32 3
  %47 = load ptr, ptr %2, align 8
  %48 = getelementptr inbounds i8, ptr %47, i64 88
  %49 = load i64, ptr %48, align 8
  %50 = and i64 %49, %44
  %.not.i28 = icmp eq i64 %50, 0
  br i1 %.not.i28, label %H5MF__aggr_reset.exit32.thread, label %51

51:                                               ; preds = %43
  %52 = getelementptr inbounds i8, ptr %.021, i64 32
  %53 = load i64, ptr %52, align 8
  %54 = getelementptr inbounds i8, ptr %.021, i64 24
  %55 = load i64, ptr %54, align 8
  %56 = getelementptr inbounds i8, ptr %.021, i64 16
  %.not16.i29 = icmp eq i64 %55, 0
  tail call void @llvm.memset.p0.i64(ptr noundef nonnull align 8 dereferenceable(24) %56, i8 0, i64 24, i1 false)
  br i1 %.not16.i29, label %H5MF__aggr_reset.exit32.thread, label %57

57:                                               ; preds = %51
  %58 = tail call i32 @H5F_get_intent(ptr noundef nonnull %0) #6
  %59 = and i32 %58, 1
  %.not17.i30 = icmp eq i32 %59, 0
  br i1 %.not17.i30, label %H5MF__aggr_reset.exit32.thread, label %60

60:                                               ; preds = %57
  %61 = tail call i32 @H5MF_xfree(ptr noundef nonnull %0, i32 noundef %46, i64 noundef %53, i64 noundef %55) #6
  %62 = icmp slt i32 %61, 0
  br i1 %62, label %63, label %H5MF__aggr_reset.exit32.thread

63:                                               ; preds = %60
  %64 = load i64, ptr @H5E_RESOURCE_g, align 8
  %65 = load i64, ptr @H5E_CANTFREE_g, align 8
  %66 = tail call i32 (ptr, ptr, i32, i64, i64, ptr, ...) @H5E_printf_stack(ptr noundef nonnull @.str, ptr noundef nonnull @__func__.H5MF__aggr_reset, i32 noundef 726, i64 noundef %64, i64 noundef %65, ptr noundef nonnull @.str.16) #6
  %67 = load i64, ptr @H5E_FILE_g, align 8
  %68 = load i64, ptr @H5E_CANTFREE_g, align 8
  %69 = tail call i32 (ptr, ptr, i32, i64, i64, ptr, ...) @H5E_printf_stack(ptr noundef nonnull @.str, ptr noundef nonnull @__func__.H5MF_free_aggrs, i32 noundef 792, i64 noundef %67, i64 noundef %68, ptr noundef nonnull @.str.8) #6
  br label %H5MF__aggr_reset.exit32.thread

H5MF__aggr_reset.exit32.thread:                   ; preds = %43, %51, %57, %60, %63, %36
  %.0 = phi i32 [ -1, %36 ], [ -1, %63 ], [ 0, %60 ], [ 0, %57 ], [ 0, %51 ], [ 0, %43 ]
  ret i32 %.0
}